target datalayout = "e-m:e-p270:32:32-p271:32:32-p272:64:64-i64:64-i128:128-f80:128-n8:16:32:64-S128"
target triple = "x86_64-pc-linux-gnu"

%"class.std::__cxx11::basic_string" = type { %"struct.std::__cxx11::basic_string<char>::_Alloc_hider", i64, %union.anon }
%"struct.std::__cxx11::basic_string<char>::_Alloc_hider" = type { ptr }
%union.anon = type { i64, [8 x i8] }
%"struct.faiss::IOReader" = type { ptr, %"class.std::__cxx11::basic_string" }
%"struct.faiss::FileIOReader" = type <{ %"struct.faiss::IOReader", ptr, i8, [7 x i8] }>

@_ZTVN5faiss8IOReaderE = unnamed_addr constant { [6 x ptr] } { [6 x ptr] [ptr null, ptr @_ZTIN5faiss8IOReaderE, ptr @__cxa_pure_virtual, ptr @_ZN5faiss8IOReader6filenoEv, ptr @_ZN5faiss8IOReaderD2Ev, ptr @_ZN5faiss8IOReaderD0Ev] }, align 8
@_ZTVN5faiss12FileIOReaderE = unnamed_addr constant { [6 x ptr] } { [6 x ptr] [ptr null, ptr @_ZTIN5faiss12FileIOReaderE, ptr @_ZN5faiss12FileIOReaderclEPvmm, ptr @_ZN5faiss12FileIOReader6filenoEv, ptr @_ZN5faiss12FileIOReaderD1Ev, ptr @_ZN5faiss12FileIOReaderD0Ev] }, align 8
@.str.1 = private unnamed_addr constant [107 x i8] c"generated/home/dtcxzyw/WorkSpace/Projects/compilers/llvm-opt-benchmark/bench/faiss/faiss/faiss/impl/io.cpp\00", align 1
@_ZTIN5faiss14FaissExceptionE = external constant ptr
@.str.5 = private unnamed_addr constant [3 x i8] c"rb\00", align 1
@.str.6 = private unnamed_addr constant [54 x i8] c"Error: '%s' failed: could not open %s for reading: %s\00", align 1
@.str.7 = private unnamed_addr constant [2 x i8] c"f\00", align 1
@__PRETTY_FUNCTION__._ZN5faiss12FileIOReaderC2EPKc = private unnamed_addr constant [48 x i8] c"faiss::FileIOReader::FileIOReader(const char *)\00", align 1

; Function Attrs: mustprogress nounwind uwtable
define linkonce_odr void @_ZN5faiss8IOReaderD2Ev(ptr noundef nonnull align 8 dereferenceable(40) %0) unnamed_addr #1 comdat align 2 {
  %2 = alloca ptr, align 8
  store ptr %0, ptr %2, align 8
  %3 = load ptr, ptr %2, align 8
  store ptr getelementptr inbounds ({ [6 x ptr] }, ptr @_ZTVN5faiss8IOReaderE, i32 0, i32 0, i32 2), ptr %3, align 8
  %4 = getelementptr inbounds %"struct.faiss::IOReader", ptr %3, i32 0, i32 1
  call void @_ZNSt7__cxx1112basic_stringIcSt11char_traitsIcESaIcEED1Ev(ptr noundef nonnull align 8 dereferenceable(32) %4) #12
  ret void
}

; Function Attrs: mustprogress nounwind uwtable
define linkonce_odr void @_ZN5faiss8IOReaderC2Ev(ptr noundef nonnull align 8 dereferenceable(40) %0) unnamed_addr #1 comdat align 2 {
  %2 = alloca ptr, align 8
  store ptr %0, ptr %2, align 8
  %3 = load ptr, ptr %2, align 8
  store ptr getelementptr inbounds ({ [6 x ptr] }, ptr @_ZTVN5faiss8IOReaderE, i32 0, i32 0, i32 2), ptr %3, align 8
  %4 = getelementptr inbounds %"struct.faiss::IOReader", ptr %3, i32 0, i32 1
  call void @_ZNSt7__cxx1112basic_stringIcSt11char_traitsIcESaIcEEC1Ev(ptr noundef nonnull align 8 dereferenceable(32) %4) #12
  ret void
}

; Function Attrs: mustprogress uwtable
define void @_ZN5faiss12FileIOReaderC2EPKc(ptr noundef nonnull align 8 dereferenceable(49) %0, ptr noundef %1) unnamed_addr #0 align 2 personality ptr @__gxx_personality_v0 {
  %3 = alloca ptr, align 8
  %4 = alloca ptr, align 8
  %5 = alloca ptr, align 8
  %6 = alloca i32, align 4
  %7 = alloca %"class.std::__cxx11::basic_string", align 8
  %8 = alloca i32, align 4
  store ptr %0, ptr %3, align 8
  store ptr %1, ptr %4, align 8
  %9 = load ptr, ptr %3, align 8
  call void @_ZN5faiss8IOReaderC2Ev(ptr noundef nonnull align 8 dereferenceable(40) %9) #12
  store ptr getelementptr inbounds ({ [6 x ptr] }, ptr @_ZTVN5faiss12FileIOReaderE, i32 0, i32 0, i32 2), ptr %9, align 8
  %10 = getelementptr inbounds %"struct.faiss::FileIOReader", ptr %9, i32 0, i32 1
  store ptr null, ptr %10, align 8
  %11 = getelementptr inbounds %"struct.faiss::FileIOReader", ptr %9, i32 0, i32 2
  store i8 0, ptr %11, align 8
  %12 = load ptr, ptr %4, align 8
  %13 = getelementptr inbounds %"struct.faiss::IOReader", ptr %9, i32 0, i32 1
  %14 = invoke noundef nonnull align 8 dereferenceable(32) ptr @_ZNSt7__cxx1112basic_stringIcSt11char_traitsIcESaIcEEaSEPKc(ptr noundef nonnull align 8 dereferenceable(32) %13, ptr noundef %12)
          to label %15 unwind label %45

15:                                               ; preds = %2
  %16 = load ptr, ptr %4, align 8
  %17 = invoke noalias ptr @fopen(ptr noundef %16, ptr noundef @.str.5)
          to label %18 unwind label %45

18:                                               ; preds = %15
  %19 = getelementptr inbounds %"struct.faiss::FileIOReader", ptr %9, i32 0, i32 1
  store ptr %17, ptr %19, align 8
  br label %20

20:                                               ; preds = %18
  %21 = getelementptr inbounds %"struct.faiss::FileIOReader", ptr %9, i32 0, i32 1
  %22 = load ptr, ptr %21, align 8
  %23 = icmp ne ptr %22, null
  br i1 %23, label %60, label %24

24:                                               ; preds = %20
  br label %25

25:                                               ; preds = %24
  call void @_ZNSt7__cxx1112basic_stringIcSt11char_traitsIcESaIcEEC1Ev(ptr noundef nonnull align 8 dereferenceable(32) %7) #12
  %26 = load ptr, ptr %4, align 8
  %27 = call ptr @__errno_location() #17
  %28 = load i32, ptr %27, align 4
  %29 = call ptr @strerror(i32 noundef %28) #12
  %30 = call i32 (ptr, i64, ptr, ...) @snprintf(ptr noundef null, i64 noundef 0, ptr noundef @.str.6, ptr noundef @.str.7, ptr noundef %26, ptr noundef %29) #12
  store i32 %30, ptr %8, align 4
  %31 = load i32, ptr %8, align 4
  %32 = add nsw i32 %31, 1
  %33 = sext i32 %32 to i64
  invoke void @_ZNSt7__cxx1112basic_stringIcSt11char_traitsIcESaIcEE6resizeEm(ptr noundef nonnull align 8 dereferenceable(32) %7, i64 noundef %33)
          to label %34 unwind label %49

34:                                               ; preds = %25
  %35 = invoke noundef nonnull align 1 dereferenceable(1) ptr @_ZNSt7__cxx1112basic_stringIcSt11char_traitsIcESaIcEEixEm(ptr noundef nonnull align 8 dereferenceable(32) %7, i64 noundef 0)
          to label %36 unwind label %49

36:                                               ; preds = %34
  %37 = call noundef i64 @_ZNKSt7__cxx1112basic_stringIcSt11char_traitsIcESaIcEE4sizeEv(ptr noundef nonnull align 8 dereferenceable(32) %7) #12
  %38 = load ptr, ptr %4, align 8
  %39 = call ptr @__errno_location() #17
  %40 = load i32, ptr %39, align 4
  %41 = call ptr @strerror(i32 noundef %40) #12
  %42 = call i32 (ptr, i64, ptr, ...) @snprintf(ptr noundef %35, i64 noundef %37, ptr noundef @.str.6, ptr noundef @.str.7, ptr noundef %38, ptr noundef %41) #12
  %43 = call ptr @__cxa_allocate_exception(i64 40) #12
  invoke void @_ZN5faiss14FaissExceptionC1ERKNSt7__cxx1112basic_stringIcSt11char_traitsIcESaIcEEEPKcSA_i(ptr noundef nonnull align 8 dereferenceable(40) %43, ptr noundef nonnull align 8 dereferenceable(32) %7, ptr noundef @__PRETTY_FUNCTION__._ZN5faiss12FileIOReaderC2EPKc, ptr noundef @.str.1, i32 noundef 68)
          to label %44 unwind label %53

44:                                               ; preds = %36
  invoke void @__cxa_throw(ptr %43, ptr @_ZTIN5faiss14FaissExceptionE, ptr @_ZN5faiss14FaissExceptionD2Ev) #13
          to label %70 unwind label %49

45:                                               ; preds = %15, %2
  %46 = landingpad { ptr, i32 }
          cleanup
  %47 = extractvalue { ptr, i32 } %46, 0
  store ptr %47, ptr %5, align 8
  %48 = extractvalue { ptr, i32 } %46, 1
  store i32 %48, ptr %6, align 4
  br label %64

49:                                               ; preds = %44, %34, %25
  %50 = landingpad { ptr, i32 }
          cleanup
  %51 = extractvalue { ptr, i32 } %50, 0
  store ptr %51, ptr %5, align 8
  %52 = extractvalue { ptr, i32 } %50, 1
  store i32 %52, ptr %6, align 4
  br label %57

53:                                               ; preds = %36
  %54 = landingpad { ptr, i32 }
          cleanup
  %55 = extractvalue { ptr, i32 } %54, 0
  store ptr %55, ptr %5, align 8
  %56 = extractvalue { ptr, i32 } %54, 1
  store i32 %56, ptr %6, align 4
  call void @__cxa_free_exception(ptr %43) #12
  br label %57

57:                                               ; preds = %53, %49
  call void @_ZNSt7__cxx1112basic_stringIcSt11char_traitsIcESaIcEED1Ev(ptr noundef nonnull align 8 dereferenceable(32) %7) #12
  br label %64

58:                                               ; No predecessors!
  br label %59

59:                                               ; preds = %58
  br label %60

60:                                               ; preds = %59, %20
  br label %61

61:                                               ; preds = %60
  br label %62

62:                                               ; preds = %61
  %63 = getelementptr inbounds %"struct.faiss::FileIOReader", ptr %9, i32 0, i32 2
  store i8 1, ptr %63, align 8
  ret void

64:                                               ; preds = %57, %45
  call void @_ZN5faiss8IOReaderD2Ev(ptr noundef nonnull align 8 dereferenceable(40) %9) #12
  br label %65

65:                                               ; preds = %64
  %66 = load ptr, ptr %5, align 8
  %67 = load i32, ptr %6, align 4
  %68 = insertvalue { ptr, i32 } poison, ptr %66, 0
  %69 = insertvalue { ptr, i32 } %68, i32 %67, 1
  resume { ptr, i32 } %69

70:                                               ; preds = %44
  unreachable
}